; Function Attrs: mustprogress nounwind uwtable
define hidden noundef zeroext i1 @_ZN18OpenImageIO_v2_6_09NullInput20read_native_scanlineEiiiiPv(ptr noundef nonnull align 8 dereferenceable(416) %this, i32 %0, i32 %1, i32 %2, i32 %3, ptr nocapture noundef writeonly %data) unnamed_addr #6 align 2 {
entry:
  %m_value = getelementptr inbounds i8, ptr %this, i64 232
  %_M_finish.i = getelementptr inbounds i8, ptr %this, i64 240
  %4 = load ptr, ptr %_M_finish.i, align 8
  %5 = load ptr, ptr %m_value, align 8
  %tobool.not = icmp eq ptr %4, %5
  %m_spec9 = getelementptr inbounds i8, ptr %this, i64 8
  br i1 %tobool.not, label %if.else, label %if.then

if.then:                                          ; preds = %entry
  %call5 = tail call noundef i64 @_ZNK18OpenImageIO_v2_6_09ImageSpec11pixel_bytesEb(ptr noundef nonnull align 8 dereferenceable(160) %m_spec9, i1 noundef zeroext false) #18
  %width = getelementptr inbounds i8, ptr %this, i64 20
  %6 = load i32, ptr %width, align 4
  %cmp5 = icmp sgt i32 %6, 0
  br i1 %cmp5, label %for.body, label %if.end

for.body:                                         ; preds = %if.then, %for.body
  %indvars.iv = phi i64 [ %indvars.iv.next, %for.body ], [ 0, %if.then ]
  %mul = mul i64 %call5, %indvars.iv
  %add.ptr = getelementptr inbounds i8, ptr %data, i64 %mul
  %7 = load ptr, ptr %m_value, align 8
  tail call void @llvm.memcpy.p0.p0.i64(ptr align 1 %add.ptr, ptr align 1 %7, i64 %call5, i1 false)
  %indvars.iv.next = add nuw nsw i64 %indvars.iv, 1
  %8 = load i32, ptr %width, align 4
  %9 = sext i32 %8 to i64
  %cmp = icmp slt i64 %indvars.iv.next, %9
  br i1 %cmp, label %for.body, label %if.end, !llvm.loop !12

if.else:                                          ; preds = %entry
  %call10 = tail call noundef i64 @_ZNK18OpenImageIO_v2_6_09ImageSpec14scanline_bytesEb(ptr noundef nonnull align 8 dereferenceable(160) %m_spec9, i1 noundef zeroext false) #18
  tail call void @llvm.memset.p0.i64(ptr align 1 %data, i8 0, i64 %call10, i1 false)
  br label %if.end

if.end:                                           ; preds = %for.body, %if.then, %if.else
  ret i1 true
}